target datalayout = "e-m:e-p270:32:32-p271:32:32-p272:64:64-i64:64-i128:128-f80:128-n8:16:32:64-S128"
target triple = "x86_64-pc-linux-gnu"

@H5R_init_g = global i8 0, align 1
@H5_libterm_g = external global i8, align 1
@.str = private unnamed_addr constant [100 x i8] c"generated/home/dtcxzyw/WorkSpace/Projects/compilers/llvm-opt-benchmark/bench/hdf5/hdf5/src/H5Rint.c\00", align 1
@H5E_REFERENCE_g = external global i64, align 8
@H5E_CANTDECODE_g = external global i64, align 8
@.str.31 = private unnamed_addr constant [25 x i8] c"Buffer size is too small\00", align 1
@__func__.H5R__decode_token_obj_compat = private unnamed_addr constant [29 x i8] c"H5R__decode_token_obj_compat\00", align 1

; Function Attrs: nounwind uwtable
define i32 @H5R__decode_token_obj_compat(ptr noundef %0, ptr noundef %1, ptr noundef %2, i64 noundef %3) #0 {
  %5 = alloca ptr, align 8
  %6 = alloca ptr, align 8
  %7 = alloca ptr, align 8
  %8 = alloca i64, align 8
  %9 = alloca i32, align 4
  %10 = alloca i8, align 1
  store ptr %0, ptr %5, align 8, !tbaa !24
  store ptr %1, ptr %6, align 8, !tbaa !26
  store ptr %2, ptr %7, align 8, !tbaa !9
  store i64 %3, ptr %8, align 8, !tbaa !12
  call void @llvm.lifetime.start.p0(i64 4, ptr %9) #9
  store i32 0, ptr %9, align 4, !tbaa !16
  call void @llvm.lifetime.start.p0(i64 1, ptr %10) #9
  store i8 0, ptr %10, align 1, !tbaa !3
  %11 = load i8, ptr @H5R_init_g, align 1, !tbaa !3, !range !7, !noundef !8
  %12 = trunc i8 %11 to i1
  br i1 %12, label %17, label %13

13:                                               ; preds = %4
  %14 = load i8, ptr @H5_libterm_g, align 1, !tbaa !3, !range !7, !noundef !8
  %15 = trunc i8 %14 to i1
  %16 = xor i1 %15, true
  br label %17

17:                                               ; preds = %13, %4
  %18 = phi i1 [ true, %4 ], [ %16, %13 ]
  %19 = xor i1 %18, true
  %20 = xor i1 %19, true
  %21 = zext i1 %20 to i32
  %22 = sext i32 %21 to i64
  %23 = call i64 @llvm.expect.i64(i64 %22, i64 1)
  %24 = icmp ne i64 %23, 0
  br i1 %24, label %25, label %56

25:                                               ; preds = %17
  %26 = load ptr, ptr %6, align 8, !tbaa !26
  %27 = load i64, ptr %26, align 8, !tbaa !12
  %28 = load i64, ptr %8, align 8, !tbaa !12
  %29 = icmp ult i64 %27, %28
  br i1 %29, label %30, label %49

30:                                               ; preds = %25
  br label %31

31:                                               ; preds = %30
  br label %32

32:                                               ; preds = %31
  br label %33

33:                                               ; preds = %32
  %34 = load i64, ptr @H5E_REFERENCE_g, align 8, !tbaa !12
  %35 = load i64, ptr @H5E_CANTDECODE_g, align 8, !tbaa !12
  %36 = call i32 (ptr, ptr, i32, i64, i64, ptr, ...) @H5E_printf_stack(ptr noundef @.str, ptr noundef @__func__.H5R__decode_token_obj_compat, i32 noundef 1480, i64 noundef %34, i64 noundef %35, ptr noundef @.str.31)
  br label %37

37:                                               ; preds = %33
  br label %38

38:                                               ; preds = %37
  store i8 1, ptr %10, align 1, !tbaa !3
  %39 = load i8, ptr %10, align 1, !tbaa !3, !range !7, !noundef !8
  %40 = trunc i8 %39 to i1
  %41 = zext i1 %40 to i8
  store i8 %41, ptr %10, align 1, !tbaa !3
  br label %42

42:                                               ; preds = %38
  br label %43

43:                                               ; preds = %42
  br label %44

44:                                               ; preds = %43
  store i32 -1, ptr %9, align 4, !tbaa !16
  br label %55

45:                                               ; No predecessors!
  br label %46

46:                                               ; preds = %45
  br label %47

47:                                               ; preds = %46
  br label %48

48:                                               ; preds = %47
  br label %49

49:                                               ; preds = %48, %25
  %50 = load ptr, ptr %7, align 8, !tbaa !9
  %51 = load ptr, ptr %5, align 8, !tbaa !24
  %52 = load i64, ptr %8, align 8, !tbaa !12
  call void @llvm.memcpy.p0.p0.i64(ptr align 1 %50, ptr align 1 %51, i64 %52, i1 false)
  %53 = load i64, ptr %8, align 8, !tbaa !12
  %54 = load ptr, ptr %6, align 8, !tbaa !26
  store i64 %53, ptr %54, align 8, !tbaa !12
  br label %55

55:                                               ; preds = %49, %44
  br label %56

56:                                               ; preds = %55, %17
  %57 = load i32, ptr %9, align 4, !tbaa !16
  call void @llvm.lifetime.end.p0(i64 1, ptr %10) #9
  call void @llvm.lifetime.end.p0(i64 4, ptr %9) #9
  ret i32 %57
}