; Function Attrs: nounwind uwtable
define range(i32 -1, 1) i32 @H5R__decode_token_obj_compat(ptr noundef readonly captures(none) %0, ptr noundef captures(none) %1, ptr noundef writeonly captures(none) %2, i64 noundef %3) local_unnamed_addr #1 {
  %5 = load i8, ptr @H5R_init_g, align 1, !tbaa !3, !range !7, !noundef !8
  %6 = trunc nuw i8 %5 to i1
  %7 = load i8, ptr @H5_libterm_g, align 1, !range !7
  %8 = trunc nuw i8 %7 to i1
  %9 = xor i1 %8, true
  %10 = select i1 %6, i1 true, i1 %9
  br i1 %10, label %11, label %19, !prof !9

11:                                               ; preds = %4
  %12 = load i64, ptr %1, align 8, !tbaa !17
  %13 = icmp ult i64 %12, %3
  br i1 %13, label %14, label %18

14:                                               ; preds = %11
  %15 = load i64, ptr @H5E_REFERENCE_g, align 8, !tbaa !17
  %16 = load i64, ptr @H5E_CANTDECODE_g, align 8, !tbaa !17
  %17 = tail call i32 (ptr, ptr, i32, i64, i64, ptr, ...) @H5E_printf_stack(ptr noundef nonnull @.str, ptr noundef nonnull @__func__.H5R__decode_token_obj_compat, i32 noundef 1480, i64 noundef %15, i64 noundef %16, ptr noundef nonnull @.str.31) #15
  br label %19

18:                                               ; preds = %11
  tail call void @llvm.memcpy.p0.p0.i64(ptr align 1 %2, ptr align 1 %0, i64 %3, i1 false)
  store i64 %3, ptr %1, align 8, !tbaa !17
  br label %19

19:                                               ; preds = %14, %18, %4
  %.0 = phi i32 [ -1, %14 ], [ 0, %18 ], [ 0, %4 ]
  ret i32 %.0
}